target datalayout = "e-m:e-p270:32:32-p271:32:32-p272:64:64-i64:64-i128:128-f80:128-n8:16:32:64-S128"
target triple = "x86_64-pc-linux-gnu"

%struct.BufferManagerRelation = type { ptr, ptr, i8 }
%struct.RelationData = type { %struct.RelFileLocator, ptr, i32, i32, i8, i8, i8, i8, i8, i32, i32, i32, i32, ptr, ptr, i32, %struct.LockInfoData, ptr, ptr, ptr, ptr, ptr, i8, ptr, ptr, ptr, ptr, ptr, ptr, i32, ptr, i8, ptr, ptr, i32, i8, i32, ptr, i8, ptr, ptr, ptr, ptr, ptr, ptr, ptr, i32, ptr, ptr, ptr, ptr, ptr, ptr, ptr, ptr, ptr, ptr, ptr, ptr, ptr, ptr, ptr, ptr, ptr, ptr, ptr, i32, i8, ptr }
%struct.RelFileLocator = type { i32, i32, i32 }
%struct.LockInfoData = type { %struct.LockRelId }
%struct.LockRelId = type { i32, i32 }
%struct.FormData_pg_class = type { i32, %struct.nameData, i32, i32, i32, i32, i32, i32, i32, i32, float, i32, i32, i8, i8, i8, i8, i16, i16, i8, i8, i8, i8, i8, i8, i8, i8, i32, i32, i32 }
%struct.nameData = type { [64 x i8] }

@.str = private unnamed_addr constant [27 x i8] c"hash AM does not use P_NEW\00", align 1
@.str.1 = private unnamed_addr constant [11 x i8] c"hashpage.c\00", align 1
@__func__._hash_getnewbuf = private unnamed_addr constant [16 x i8] c"_hash_getnewbuf\00", align 1
@.str.2 = private unnamed_addr constant [48 x i8] c"access to noncontiguous page in hash index \22%s\22\00", align 1
@.str.3 = private unnamed_addr constant [48 x i8] c"unexpected hash relation size: %u, should be %u\00", align 1
@LocalBufferBlockPointers = external global ptr, align 8
@BufferBlocks = external global ptr, align 8

; Function Attrs: inlinehint nounwind uwtable
define internal ptr @BufferGetBlock(i32 noundef %0) #4 {
  %2 = alloca ptr, align 8
  %3 = alloca i32, align 4
  store i32 %0, ptr %3, align 4
  %4 = load i32, ptr %3, align 4
  %5 = icmp slt i32 %4, 0
  br i1 %5, label %6, label %14

6:                                                ; preds = %1
  %7 = load ptr, ptr @LocalBufferBlockPointers, align 8
  %8 = load i32, ptr %3, align 4
  %9 = sub i32 0, %8
  %10 = sub i32 %9, 1
  %11 = sext i32 %10 to i64
  %12 = getelementptr inbounds ptr, ptr %7, i64 %11
  %13 = load ptr, ptr %12, align 8
  store ptr %13, ptr %2, align 8
  br label %21

14:                                               ; preds = %1
  %15 = load ptr, ptr @BufferBlocks, align 8
  %16 = load i32, ptr %3, align 4
  %17 = sub i32 %16, 1
  %18 = sext i32 %17 to i64
  %19 = mul i64 %18, 8192
  %20 = getelementptr inbounds nuw i8, ptr %15, i64 %19
  store ptr %20, ptr %2, align 8
  br label %21

21:                                               ; preds = %14, %6
  %22 = load ptr, ptr %2, align 8
  ret ptr %22
}

; Function Attrs: nounwind uwtable
define dso_local void @_hash_pageinit(ptr noundef %0, i64 noundef %1) #0 {
  %3 = alloca ptr, align 8
  %4 = alloca i64, align 8
  store ptr %0, ptr %3, align 8
  store i64 %1, ptr %4, align 8
  %5 = load ptr, ptr %3, align 8
  %6 = load i64, ptr %4, align 8
  call void @PageInit(ptr noundef %5, i64 noundef %6, i64 noundef 16)
  ret void
}

; Function Attrs: inlinehint nounwind uwtable
define internal i64 @BufferGetPageSize(i32 noundef %0) #4 {
  %2 = alloca i32, align 4
  store i32 %0, ptr %2, align 4
  ret i64 8192
}

; Function Attrs: inlinehint nounwind uwtable
define internal ptr @BufferGetPage(i32 noundef %0) #4 {
  %2 = alloca i32, align 4
  store i32 %0, ptr %2, align 4
  %3 = load i32, ptr %2, align 4
  %4 = call ptr @BufferGetBlock(i32 noundef %3)
  ret ptr %4
}

; Function Attrs: nounwind uwtable
define dso_local i32 @_hash_getnewbuf(ptr noundef %0, i32 noundef %1, i32 noundef %2) #0 {
  %4 = alloca ptr, align 8
  %5 = alloca i32, align 4
  %6 = alloca i32, align 4
  %7 = alloca i32, align 4
  %8 = alloca i32, align 4
  %9 = alloca %struct.BufferManagerRelation, align 8
  store ptr %0, ptr %4, align 8
  store i32 %1, ptr %5, align 4
  store i32 %2, ptr %6, align 4
  call void @llvm.lifetime.start.p0(i64 4, ptr %7) #9
  %10 = load ptr, ptr %4, align 8
  %11 = load i32, ptr %6, align 4
  %12 = call i32 @RelationGetNumberOfBlocksInFork(ptr noundef %10, i32 noundef %11)
  store i32 %12, ptr %7, align 4
  call void @llvm.lifetime.start.p0(i64 4, ptr %8) #9
  %13 = load i32, ptr %5, align 4
  %14 = icmp eq i32 %13, -1
  br i1 %14, label %15, label %26

15:                                               ; preds = %3
  br label %16

16:                                               ; preds = %15
  br i1 true, label %17, label %19

17:                                               ; preds = %16
  %18 = call zeroext i1 @errstart_cold(i32 noundef 21, ptr noundef null) #10
  br i1 %18, label %21, label %23

19:                                               ; preds = %16
  %20 = call zeroext i1 @errstart(i32 noundef 21, ptr noundef null)
  br i1 %20, label %21, label %23

21:                                               ; preds = %19, %17
  %22 = call i32 (ptr, ...) @errmsg_internal(ptr noundef @.str)
  call void @errfinish(ptr noundef @.str.1, i32 noundef 204, ptr noundef @__func__._hash_getnewbuf)
  br label %23

23:                                               ; preds = %21, %19, %17
  unreachable

24:                                               ; No predecessors!
  br label %25

25:                                               ; preds = %24
  br label %26

26:                                               ; preds = %25, %3
  %27 = load i32, ptr %5, align 4
  %28 = load i32, ptr %7, align 4
  %29 = icmp ugt i32 %27, %28
  br i1 %29, label %30, label %47

30:                                               ; preds = %26
  br label %31

31:                                               ; preds = %30
  br i1 true, label %32, label %34

32:                                               ; preds = %31
  %33 = call zeroext i1 @errstart_cold(i32 noundef 21, ptr noundef null) #10
  br i1 %33, label %36, label %44

34:                                               ; preds = %31
  %35 = call zeroext i1 @errstart(i32 noundef 21, ptr noundef null)
  br i1 %35, label %36, label %44

36:                                               ; preds = %34, %32
  %37 = load ptr, ptr %4, align 8
  %38 = getelementptr inbounds nuw %struct.RelationData, ptr %37, i32 0, i32 13
  %39 = load ptr, ptr %38, align 8
  %40 = getelementptr inbounds nuw %struct.FormData_pg_class, ptr %39, i32 0, i32 1
  %41 = getelementptr inbounds nuw %struct.nameData, ptr %40, i32 0, i32 0
  %42 = getelementptr inbounds [64 x i8], ptr %41, i64 0, i64 0
  %43 = call i32 (ptr, ...) @errmsg_internal(ptr noundef @.str.2, ptr noundef %42)
  call void @errfinish(ptr noundef @.str.1, i32 noundef 207, ptr noundef @__func__._hash_getnewbuf)
  br label %44

44:                                               ; preds = %36, %34, %32
  unreachable

45:                                               ; No predecessors!
  br label %46

46:                                               ; preds = %45
  br label %47

47:                                               ; preds = %46, %26
  %48 = load i32, ptr %5, align 4
  %49 = load i32, ptr %7, align 4
  %50 = icmp eq i32 %48, %49
  br i1 %50, label %51, label %78

51:                                               ; preds = %47
  %52 = getelementptr inbounds nuw %struct.BufferManagerRelation, ptr %9, i32 0, i32 0
  %53 = load ptr, ptr %4, align 8
  store ptr %53, ptr %52, align 8
  %54 = getelementptr inbounds nuw %struct.BufferManagerRelation, ptr %9, i32 0, i32 1
  store ptr null, ptr %54, align 8
  %55 = getelementptr inbounds nuw %struct.BufferManagerRelation, ptr %9, i32 0, i32 2
  store i8 0, ptr %55, align 8
  %56 = getelementptr i8, ptr %9, i64 17
  call void @llvm.memset.p0.i64(ptr align 1 %56, i8 0, i64 7, i1 false)
  %57 = load i32, ptr %6, align 4
  %58 = call i32 @ExtendBufferedRel(ptr noundef byval(%struct.BufferManagerRelation) align 8 %9, i32 noundef %57, ptr noundef null, i32 noundef 9)
  store i32 %58, ptr %8, align 4
  %59 = load i32, ptr %8, align 4
  %60 = call i32 @BufferGetBlockNumber(i32 noundef %59)
  %61 = load i32, ptr %5, align 4
  %62 = icmp ne i32 %60, %61
  br i1 %62, label %63, label %77

63:                                               ; preds = %51
  br label %64

64:                                               ; preds = %63
  br i1 true, label %65, label %67

65:                                               ; preds = %64
  %66 = call zeroext i1 @errstart_cold(i32 noundef 21, ptr noundef null) #10
  br i1 %66, label %69, label %74

67:                                               ; preds = %64
  %68 = call zeroext i1 @errstart(i32 noundef 21, ptr noundef null)
  br i1 %68, label %69, label %74

69:                                               ; preds = %67, %65
  %70 = load i32, ptr %8, align 4
  %71 = call i32 @BufferGetBlockNumber(i32 noundef %70)
  %72 = load i32, ptr %5, align 4
  %73 = call i32 (ptr, ...) @errmsg_internal(ptr noundef @.str.3, i32 noundef %71, i32 noundef %72)
  call void @errfinish(ptr noundef @.str.1, i32 noundef 216, ptr noundef @__func__._hash_getnewbuf)
  br label %74

74:                                               ; preds = %69, %67, %65
  unreachable

75:                                               ; No predecessors!
  br label %76

76:                                               ; preds = %75
  br label %77

77:                                               ; preds = %76, %51
  br label %83

78:                                               ; preds = %47
  %79 = load ptr, ptr %4, align 8
  %80 = load i32, ptr %6, align 4
  %81 = load i32, ptr %5, align 4
  %82 = call i32 @ReadBufferExtended(ptr noundef %79, i32 noundef %80, i32 noundef %81, i32 noundef 1, ptr noundef null)
  store i32 %82, ptr %8, align 4
  br label %83

83:                                               ; preds = %78, %77
  %84 = load i32, ptr %8, align 4
  %85 = call ptr @BufferGetPage(i32 noundef %84)
  %86 = load i32, ptr %8, align 4
  %87 = call i64 @BufferGetPageSize(i32 noundef %86)
  call void @_hash_pageinit(ptr noundef %85, i64 noundef %87)
  %88 = load i32, ptr %8, align 4
  call void @llvm.lifetime.end.p0(i64 4, ptr %8) #9
  call void @llvm.lifetime.end.p0(i64 4, ptr %7) #9
  ret i32 %88
}