; Function Attrs: nounwind uwtable
define dso_local i32 @_hash_getnewbuf(ptr noundef %0, i32 noundef %1, i32 noundef %2) local_unnamed_addr #0 {
  %4 = alloca %struct.BufferManagerRelation, align 8
  %5 = tail call i32 @RelationGetNumberOfBlocksInFork(ptr noundef %0, i32 noundef %2) #10
  %6 = icmp eq i32 %1, -1
  br i1 %6, label %7, label %10

7:                                                ; preds = %3
  %8 = tail call zeroext i1 @errstart_cold(i32 noundef 21, ptr noundef null) #9
  tail call void @llvm.assume(i1 %8)
  %9 = tail call i32 (ptr, ...) @errmsg_internal(ptr noundef nonnull @.str) #10
  tail call void @errfinish(ptr noundef nonnull @.str.1, i32 noundef 204, ptr noundef nonnull @__func__._hash_getnewbuf) #10
  unreachable

10:                                               ; preds = %3
  %11 = icmp ugt i32 %1, %5
  br i1 %11, label %12, label %18

12:                                               ; preds = %10
  %13 = tail call zeroext i1 @errstart_cold(i32 noundef 21, ptr noundef null) #9
  tail call void @llvm.assume(i1 %13)
  %14 = getelementptr inbounds nuw i8, ptr %0, i64 56
  %15 = load ptr, ptr %14, align 8
  %16 = getelementptr inbounds nuw i8, ptr %15, i64 4
  %17 = tail call i32 (ptr, ...) @errmsg_internal(ptr noundef nonnull @.str.2, ptr noundef nonnull %16) #10
  tail call void @errfinish(ptr noundef nonnull @.str.1, i32 noundef 207, ptr noundef nonnull @__func__._hash_getnewbuf) #10
  unreachable

18:                                               ; preds = %10
  %19 = icmp eq i32 %1, %5
  br i1 %19, label %20, label %28

20:                                               ; preds = %18
  store ptr %0, ptr %4, align 8
  %21 = getelementptr inbounds nuw i8, ptr %4, i64 8
  call void @llvm.memset.p0.i64(ptr noundef nonnull align 8 dereferenceable(16) %21, i8 0, i64 16, i1 false)
  %22 = tail call i32 @ExtendBufferedRel(ptr noundef nonnull byval(%struct.BufferManagerRelation) align 8 %4, i32 noundef %2, ptr noundef null, i32 noundef 9) #10
  %23 = tail call i32 @BufferGetBlockNumber(i32 noundef %22) #10
  %.not = icmp eq i32 %23, %1
  br i1 %.not, label %30, label %24

24:                                               ; preds = %20
  %25 = tail call zeroext i1 @errstart_cold(i32 noundef 21, ptr noundef null) #9
  tail call void @llvm.assume(i1 %25)
  %26 = tail call i32 @BufferGetBlockNumber(i32 noundef %22) #10
  %27 = tail call i32 (ptr, ...) @errmsg_internal(ptr noundef nonnull @.str.3, i32 noundef %26, i32 noundef %1) #10
  tail call void @errfinish(ptr noundef nonnull @.str.1, i32 noundef 216, ptr noundef nonnull @__func__._hash_getnewbuf) #10
  unreachable

28:                                               ; preds = %18
  %29 = tail call i32 @ReadBufferExtended(ptr noundef %0, i32 noundef %2, i32 noundef %1, i32 noundef 1, ptr noundef null) #10
  br label %30

30:                                               ; preds = %20, %28
  %.0 = phi i32 [ %22, %20 ], [ %29, %28 ]
  %31 = icmp slt i32 %.0, 0
  br i1 %31, label %32, label %38

32:                                               ; preds = %30
  %33 = load ptr, ptr @LocalBufferBlockPointers, align 8
  %34 = xor i32 %.0, -1
  %35 = zext nneg i32 %34 to i64
  %36 = getelementptr inbounds nuw ptr, ptr %33, i64 %35
  %37 = load ptr, ptr %36, align 8
  br label %BufferGetPage.exit

38:                                               ; preds = %30
  %39 = load ptr, ptr @BufferBlocks, align 8
  %40 = add nsw i32 %.0, -1
  %41 = sext i32 %40 to i64
  %42 = shl nsw i64 %41, 13
  %43 = getelementptr inbounds nuw i8, ptr %39, i64 %42
  br label %BufferGetPage.exit

BufferGetPage.exit:                               ; preds = %32, %38
  %.0.i.i = phi ptr [ %37, %32 ], [ %43, %38 ]
  tail call void @PageInit(ptr noundef %.0.i.i, i64 noundef 8192, i64 noundef 16) #10
  ret i32 %.0
}